; Function Attrs: nofree norecurse nosync nounwind memory(readwrite, inaccessiblemem: none) uwtable
define hidden void @IntArgbToByteBinary1BitConvert(ptr noundef %0, ptr noundef %1, i32 noundef %2, i32 noundef %3, ptr nocapture noundef readonly %4, ptr nocapture noundef readonly %5, ptr nocapture readnone %6, ptr nocapture readnone %7) #0 {
  %9 = getelementptr inbounds i8, ptr %4, i64 32
  %10 = load i32, ptr %9, align 8
  %11 = getelementptr inbounds i8, ptr %5, i64 32
  %12 = load i32, ptr %11, align 8
  %13 = load i32, ptr %5, align 8
  %14 = getelementptr inbounds i8, ptr %5, i64 48
  %15 = load ptr, ptr %14, align 8
  %16 = shl i32 %2, 2
  %17 = sub i32 %10, %16
  %18 = getelementptr inbounds i8, ptr %5, i64 24
  %19 = sext i32 %17 to i64
  %20 = sext i32 %12 to i64
  br label %21

21:                                               ; preds = %66, %8
  %.048 = phi ptr [ %1, %8 ], [ %74, %66 ]
  %.047 = phi ptr [ %0, %8 ], [ %72, %66 ]
  %.0 = phi i32 [ %3, %8 ], [ %75, %66 ]
  %22 = load i32, ptr %18, align 8
  %23 = add nsw i32 %22, %13
  %24 = sdiv i32 %23, 8
  %25 = srem i32 %23, 8
  %26 = sub nsw i32 7, %25
  %27 = sext i32 %24 to i64
  %28 = getelementptr inbounds i8, ptr %.048, i64 %27
  %29 = load i8, ptr %28, align 1
  %30 = zext i8 %29 to i32
  br label %31

31:                                               ; preds = %42, %21
  %.055 = phi i32 [ %24, %21 ], [ %.156, %42 ]
  %.053 = phi i32 [ %26, %21 ], [ %61, %42 ]
  %.051 = phi i32 [ %30, %21 ], [ %60, %42 ]
  %.050 = phi i32 [ %2, %21 ], [ %65, %42 ]
  %.1 = phi ptr [ %.047, %21 ], [ %64, %42 ]
  %32 = icmp slt i32 %.053, 0
  br i1 %32, label %33, label %42

33:                                               ; preds = %31
  %34 = trunc i32 %.051 to i8
  %35 = sext i32 %.055 to i64
  %36 = getelementptr inbounds i8, ptr %.048, i64 %35
  store i8 %34, ptr %36, align 1
  %37 = add nsw i32 %.055, 1
  %38 = sext i32 %37 to i64
  %39 = getelementptr inbounds i8, ptr %.048, i64 %38
  %40 = load i8, ptr %39, align 1
  %41 = zext i8 %40 to i32
  br label %42

42:                                               ; preds = %33, %31
  %.156 = phi i32 [ %37, %33 ], [ %.055, %31 ]
  %.154 = phi i32 [ 7, %33 ], [ %.053, %31 ]
  %.152 = phi i32 [ %41, %33 ], [ %.051, %31 ]
  %43 = load i32, ptr %.1, align 4
  %44 = shl nuw nsw i32 1, %.154
  %45 = xor i32 %44, -1
  %46 = and i32 %.152, %45
  %47 = lshr i32 %43, 9
  %48 = and i32 %47, 31744
  %49 = lshr i32 %43, 6
  %50 = and i32 %49, 992
  %51 = or disjoint i32 %48, %50
  %52 = lshr i32 %43, 3
  %53 = and i32 %52, 31
  %54 = or disjoint i32 %51, %53
  %55 = zext nneg i32 %54 to i64
  %56 = getelementptr inbounds i8, ptr %15, i64 %55
  %57 = load i8, ptr %56, align 1
  %58 = zext i8 %57 to i32
  %59 = shl nuw nsw i32 %58, %.154
  %60 = or i32 %59, %46
  %61 = add nsw i32 %.154, -1
  %62 = ptrtoint ptr %.1 to i64
  %63 = add nsw i64 %62, 4
  %64 = inttoptr i64 %63 to ptr
  %65 = add i32 %.050, -1
  %.not = icmp eq i32 %65, 0
  br i1 %.not, label %66, label %31, !llvm.loop !34

66:                                               ; preds = %42
  %67 = ptrtoint ptr %.048 to i64
  %68 = trunc i32 %60 to i8
  %69 = sext i32 %.156 to i64
  %70 = getelementptr inbounds i8, ptr %.048, i64 %69
  store i8 %68, ptr %70, align 1
  %71 = add nsw i64 %63, %19
  %72 = inttoptr i64 %71 to ptr
  %73 = add nsw i64 %67, %20
  %74 = inttoptr i64 %73 to ptr
  %75 = add i32 %.0, -1
  %.not59 = icmp eq i32 %75, 0
  br i1 %.not59, label %76, label %21, !llvm.loop !35

76:                                               ; preds = %66
  ret void
}